target datalayout = "e-m:e-p270:32:32-p271:32:32-p272:64:64-i64:64-i128:128-f80:128-n8:16:32:64-S128"
target triple = "x86_64-pc-linux-gnu"

@.str.1 = private unnamed_addr constant [1 x i8] zeroinitializer, align 1
@.str.2 = private unnamed_addr constant [5 x i8] c"%s%s\00", align 1

; Function Attrs: nounwind uwtable
define hidden i32 @mbedtls_mpi_write_file(ptr noundef %0, ptr noundef %1, i32 noundef %2, ptr noundef %3) #0 {
  %5 = alloca i32, align 4
  %6 = alloca ptr, align 8
  %7 = alloca ptr, align 8
  %8 = alloca i32, align 4
  %9 = alloca ptr, align 8
  %10 = alloca i32, align 4
  %11 = alloca i64, align 8
  %12 = alloca i64, align 8
  %13 = alloca i64, align 8
  %14 = alloca [2484 x i8], align 16
  %15 = alloca i32, align 4
  store ptr %0, ptr %6, align 8, !tbaa !30
  store ptr %1, ptr %7, align 8, !tbaa !3
  store i32 %2, ptr %8, align 4, !tbaa !19
  store ptr %3, ptr %9, align 8, !tbaa !41
  call void @llvm.lifetime.start.p0(i64 4, ptr %10) #9
  store i32 -110, ptr %10, align 4, !tbaa !19
  call void @llvm.lifetime.start.p0(i64 8, ptr %11) #9
  call void @llvm.lifetime.start.p0(i64 8, ptr %12) #9
  call void @llvm.lifetime.start.p0(i64 8, ptr %13) #9
  call void @llvm.lifetime.start.p0(i64 2484, ptr %14) #9
  %16 = load i32, ptr %8, align 4, !tbaa !19
  %17 = icmp slt i32 %16, 2
  br i1 %17, label %21, label %18

18:                                               ; preds = %4
  %19 = load i32, ptr %8, align 4, !tbaa !19
  %20 = icmp sgt i32 %19, 16
  br i1 %20, label %21, label %22

21:                                               ; preds = %18, %4
  store i32 -4, ptr %5, align 4
  store i32 1, ptr %15, align 4
  br label %73

22:                                               ; preds = %18
  %23 = getelementptr inbounds [2484 x i8], ptr %14, i64 0, i64 0
  call void @llvm.memset.p0.i64(ptr align 16 %23, i8 0, i64 2484, i1 false)
  br label %24

24:                                               ; preds = %22
  %25 = load ptr, ptr %7, align 8, !tbaa !3
  %26 = load i32, ptr %8, align 4, !tbaa !19
  %27 = getelementptr inbounds [2484 x i8], ptr %14, i64 0, i64 0
  %28 = call i32 @mbedtls_mpi_write_string(ptr noundef %25, i32 noundef %26, ptr noundef %27, i64 noundef 2482, ptr noundef %11)
  store i32 %28, ptr %10, align 4, !tbaa !19
  %29 = icmp ne i32 %28, 0
  br i1 %29, label %30, label %31

30:                                               ; preds = %24
  br label %71

31:                                               ; preds = %24
  br label %32

32:                                               ; preds = %31
  br label %33

33:                                               ; preds = %32
  %34 = load ptr, ptr %6, align 8, !tbaa !30
  %35 = icmp eq ptr %34, null
  br i1 %35, label %36, label %37

36:                                               ; preds = %33
  store ptr @.str.1, ptr %6, align 8, !tbaa !30
  br label %37

37:                                               ; preds = %36, %33
  %38 = load ptr, ptr %6, align 8, !tbaa !30
  %39 = call i64 @strlen(ptr noundef %38) #11
  store i64 %39, ptr %13, align 8, !tbaa !15
  %40 = getelementptr inbounds [2484 x i8], ptr %14, i64 0, i64 0
  %41 = call i64 @strlen(ptr noundef %40) #11
  store i64 %41, ptr %12, align 8, !tbaa !15
  %42 = load i64, ptr %12, align 8, !tbaa !15
  %43 = add i64 %42, 1
  store i64 %43, ptr %12, align 8, !tbaa !15
  %44 = getelementptr inbounds nuw [2484 x i8], ptr %14, i64 0, i64 %42
  store i8 13, ptr %44, align 1, !tbaa !22
  %45 = load i64, ptr %12, align 8, !tbaa !15
  %46 = add i64 %45, 1
  store i64 %46, ptr %12, align 8, !tbaa !15
  %47 = getelementptr inbounds nuw [2484 x i8], ptr %14, i64 0, i64 %45
  store i8 10, ptr %47, align 1, !tbaa !22
  %48 = load ptr, ptr %9, align 8, !tbaa !41
  %49 = icmp ne ptr %48, null
  br i1 %49, label %50, label %66

50:                                               ; preds = %37
  %51 = load ptr, ptr %6, align 8, !tbaa !30
  %52 = load i64, ptr %13, align 8, !tbaa !15
  %53 = load ptr, ptr %9, align 8, !tbaa !41
  %54 = call i64 @fwrite(ptr noundef %51, i64 noundef 1, i64 noundef %52, ptr noundef %53)
  %55 = load i64, ptr %13, align 8, !tbaa !15
  %56 = icmp ne i64 %54, %55
  br i1 %56, label %64, label %57

57:                                               ; preds = %50
  %58 = getelementptr inbounds [2484 x i8], ptr %14, i64 0, i64 0
  %59 = load i64, ptr %12, align 8, !tbaa !15
  %60 = load ptr, ptr %9, align 8, !tbaa !41
  %61 = call i64 @fwrite(ptr noundef %58, i64 noundef 1, i64 noundef %59, ptr noundef %60)
  %62 = load i64, ptr %12, align 8, !tbaa !15
  %63 = icmp ne i64 %61, %62
  br i1 %63, label %64, label %65

64:                                               ; preds = %57, %50
  store i32 -2, ptr %5, align 4
  store i32 1, ptr %15, align 4
  br label %73

65:                                               ; preds = %57
  br label %70

66:                                               ; preds = %37
  %67 = load ptr, ptr %6, align 8, !tbaa !30
  %68 = getelementptr inbounds [2484 x i8], ptr %14, i64 0, i64 0
  %69 = call i32 (ptr, ...) @printf(ptr noundef @.str.2, ptr noundef %67, ptr noundef %68)
  br label %70

70:                                               ; preds = %66, %65
  br label %71

71:                                               ; preds = %70, %30
  %72 = load i32, ptr %10, align 4, !tbaa !19
  store i32 %72, ptr %5, align 4
  store i32 1, ptr %15, align 4
  br label %73

73:                                               ; preds = %71, %64, %21
  call void @llvm.lifetime.end.p0(i64 2484, ptr %14) #9
  call void @llvm.lifetime.end.p0(i64 8, ptr %13) #9
  call void @llvm.lifetime.end.p0(i64 8, ptr %12) #9
  call void @llvm.lifetime.end.p0(i64 8, ptr %11) #9
  call void @llvm.lifetime.end.p0(i64 4, ptr %10) #9
  %74 = load i32, ptr %5, align 4
  ret i32 %74
}