; Function Attrs: nounwind uwtable
define hidden range(i32 -16, 1) i32 @mbedtls_mpi_write_file(ptr noundef %0, ptr noundef %1, i32 noundef %2, ptr noundef %3) local_unnamed_addr #0 {
  %5 = alloca i64, align 8
  %6 = alloca [2484 x i8], align 16
  call void @llvm.lifetime.start.p0(i64 8, ptr nonnull %5) #16
  call void @llvm.lifetime.start.p0(i64 2484, ptr nonnull %6) #16
  %7 = add i32 %2, -17
  %or.cond = icmp ult i32 %7, -15
  br i1 %or.cond, label %25, label %8

8:                                                ; preds = %4
  call void @llvm.memset.p0.i64(ptr noundef nonnull align 16 dereferenceable(2484) %6, i8 0, i64 2484, i1 false)
  %9 = call i32 @mbedtls_mpi_write_string(ptr noundef %1, i32 noundef %2, ptr noundef nonnull %6, i64 noundef 2482, ptr noundef nonnull %5)
  %.not = icmp eq i32 %9, 0
  br i1 %.not, label %10, label %24

10:                                               ; preds = %8
  %11 = icmp eq ptr %0, null
  %spec.store.select = select i1 %11, ptr @.str.1, ptr %0
  %12 = call i64 @strlen(ptr noundef nonnull dereferenceable(1) %spec.store.select) #18
  %13 = call i64 @strlen(ptr noundef nonnull dereferenceable(1) %6) #18
  %14 = add i64 %13, 1
  %15 = getelementptr inbounds nuw [2484 x i8], ptr %6, i64 0, i64 %13
  store i8 13, ptr %15, align 1, !tbaa !24
  %16 = add i64 %13, 2
  %17 = getelementptr inbounds nuw [2484 x i8], ptr %6, i64 0, i64 %14
  store i8 10, ptr %17, align 1, !tbaa !24
  %.not21 = icmp eq ptr %3, null
  br i1 %.not21, label %22, label %18

18:                                               ; preds = %10
  %19 = call i64 @fwrite(ptr noundef nonnull %spec.store.select, i64 noundef 1, i64 noundef %12, ptr noundef nonnull %3)
  %.not22 = icmp eq i64 %19, %12
  br i1 %.not22, label %20, label %25

20:                                               ; preds = %18
  %21 = call i64 @fwrite(ptr noundef nonnull %6, i64 noundef 1, i64 noundef %16, ptr noundef nonnull %3)
  %.not23 = icmp eq i64 %21, %16
  br i1 %.not23, label %24, label %25

22:                                               ; preds = %10
  %23 = call i32 (ptr, ...) @printf(ptr noundef nonnull dereferenceable(1) @.str.2, ptr noundef nonnull %spec.store.select, ptr noundef nonnull %6)
  br label %24

24:                                               ; preds = %22, %20, %8
  br label %25

25:                                               ; preds = %18, %20, %4, %24
  %.0 = phi i32 [ %9, %24 ], [ -4, %4 ], [ -2, %20 ], [ -2, %18 ]
  call void @llvm.lifetime.end.p0(i64 2484, ptr nonnull %6) #16
  call void @llvm.lifetime.end.p0(i64 8, ptr nonnull %5) #16
  ret i32 %.0
}